; Function Attrs: mustprogress nounwind uwtable
define hidden noundef zeroext i1 @_ZN23RegularPredicateWithUCT19may_be_predicate_ifEP4Node(ptr nocapture noundef readonly %0) local_unnamed_addr #0 align 2 {
  %2 = getelementptr inbounds i8, ptr %0, i64 44
  %3 = load i32, ptr %2, align 4
  %4 = and i32 %3, 127
  %5 = icmp eq i32 %4, 72
  br i1 %5, label %6, label %15

6:                                                ; preds = %1
  %7 = getelementptr inbounds i8, ptr %0, i64 8
  %8 = load ptr, ptr %7, align 8
  %9 = load ptr, ptr %8, align 8
  %10 = load ptr, ptr %9, align 8
  %11 = load ptr, ptr %10, align 8
  %12 = tail call noundef i32 %11(ptr noundef nonnull align 8 dereferenceable(60) %9) #8
  switch i32 %12, label %15 [
    i32 177, label %13
    i32 178, label %16
  ]

13:                                               ; preds = %6
  %14 = tail call noundef zeroext i1 @_ZNK6IfNode18is_zero_trip_guardEv(ptr noundef nonnull align 8 dereferenceable(60) %9) #8
  br i1 %14, label %15, label %16

15:                                               ; preds = %6, %13, %1
  br label %16

16:                                               ; preds = %13, %6, %15
  %.0 = phi i1 [ false, %15 ], [ true, %6 ], [ true, %13 ]
  ret i1 %.0
}